ccopy_reg
_reconstructor
p0
(cgoogle.oauth2.credentials
Credentials
p1
c__builtin__
object
p2
Ntp3
Rp4
(dp5
S'_token_uri'
p6
Vhttps://oauth2.googleapis.com/token
p7
sS'_scopes'
p8
Vhttps://www.googleapis.com/auth/gmail.readonly
p9
sS'_id_token'
p10
NsS'token'
p11
Vya29.ImCHBzFS1uyodzvIsdB4y09tLJ8A7MoGAxGm3z7j-D1xoZD0Wqvj3x0LYISC7a8ZSfamy--gq1dWyaGb-GPGNlp-wQOFjDwr765l-zcaqdRNJdc0BP9f-7Ln9IwbIb7-9mc
p12
sS'_refresh_token'
p13
V1/uH1X9aI4XiCdqXa4gP2jK9Wl4zNChZ0p4vWUxQw4JiA
p14
sS'_client_secret'
p15
V1h_qJOtSVEPMD3tOZBzfd-kF
p16
sS'_client_id'
p17
V1077891176591-ko7mujemtt35n5pk6r70f85re7tocm9u.apps.googleusercontent.com
p18
sS'expiry'
p19
cdatetime
datetime
p20
(S'\x07\xe3\t\x12\n**\x04\xf0\xf6'
p21
tp22
Rp23
sb.