ccopy_reg
_reconstructor
p0
(cgoogle.oauth2.credentials
Credentials
p1
c__builtin__
object
p2
Ntp3
Rp4
(dp5
S'_token_uri'
p6
Vhttps://oauth2.googleapis.com/token
p7
sS'_scopes'
p8
Vhttps://www.googleapis.com/auth/gmail.readonly
p9
sS'_id_token'
p10
NsS'token'
p11
Vya29.GluGBypeh8K0_M0KJCAsg3oFnKsFyluiU5uzpuxm5Tw9B3vfkUmo-E0yokEn_G_p6zG1msBUWkKufs60y6gbbGeD5lFCO1UHFt-ksnLsiAsWUaOPvltGIhwuMiMG
p12
sS'_refresh_token'
p13
V1/uH1X9aI4XiCdqXa4gP2jK9Wl4zNChZ0p4vWUxQw4JiA
p14
sS'_client_secret'
p15
V1h_qJOtSVEPMD3tOZBzfd-kF
p16
sS'_client_id'
p17
V1077891176591-ko7mujemtt35n5pk6r70f85re7tocm9u.apps.googleusercontent.com
p18
sS'expiry'
p19
cdatetime
datetime
p20
(S'\x07\xe3\t\x11\x00-3\x07\xc5`'
p21
tp22
Rp23
sb.