ccopy_reg
_reconstructor
p0
(cgoogle.oauth2.credentials
Credentials
p1
c__builtin__
object
p2
Ntp3
Rp4
(dp5
S'_token_uri'
p6
Vhttps://oauth2.googleapis.com/token
p7
sS'_client_secret'
p8
V1h_qJOtSVEPMD3tOZBzfd-kF
p9
sS'_id_token'
p10
NsS'token'
p11
Vya29.Il-DB9_7azzXPZxGHLdOa3qdl_b9v6CYsyKeA9RSD8fa-45VWh_G03Vt3lmn2W3MW-vlDvYdBJsNiJty6qdLkhJGdIzZHBqAfFCROT3xYF4DUH22TDHN9wKY9OQIpZ0njw
p12
sS'_refresh_token'
p13
V1/uxMdbLpKRYTw0Dl1m_mzIzydOWUoUyvzvbfY2gjkgwA
p14
sS'_scopes'
p15
Vhttps://www.googleapis.com/auth/gmail.readonly
p16
sS'_client_id'
p17
V1077891176591-ko7mujemtt35n5pk6r70f85re7tocm9u.apps.googleusercontent.com
p18
sS'expiry'
p19
cdatetime
datetime
p20
(S'\x07\xe3\t\x0e\r;\x05\x0eX\xfc'
p21
tp22
Rp23
sb.