ccopy_reg
_reconstructor
p0
(cgoogle.oauth2.credentials
Credentials
p1
c__builtin__
object
p2
Ntp3
Rp4
(dp5
S'_token_uri'
p6
Vhttps://oauth2.googleapis.com/token
p7
sS'_scopes'
p8
Vhttps://www.googleapis.com/auth/gmail.readonly
p9
sS'_id_token'
p10
NsS'token'
p11
Vya29.GlyFBwPHXc481RxudqRCb0pMFmdbJ7k5Odu0A3xLTzEs0K3xcY5ivWeAqNM0CI1gU5gpGFE_6zxN05llWn-1sn3bjNodE5Y-0iOpD7LM2CMXdPYyVrpVQquCw0qrNQ
p12
sS'_refresh_token'
p13
V1/uxMdbLpKRYTw0Dl1m_mzIzydOWUoUyvzvbfY2gjkgwA
p14
sS'_client_secret'
p15
V1h_qJOtSVEPMD3tOZBzfd-kF
p16
sS'_client_id'
p17
V1077891176591-ko7mujemtt35n5pk6r70f85re7tocm9u.apps.googleusercontent.com
p18
sS'expiry'
p19
cdatetime
datetime
p20
(S'\x07\xe3\t\x10\x12\x1a\x0c\x04y&'
p21
tp22
Rp23
sb.